; Function Attrs: nofree norecurse nosync nounwind memory(argmem: write) uwtable
define hidden void @_PyType_InitCache(ptr noundef writeonly captures(none) %0) local_unnamed_addr #9 {
  %2 = getelementptr inbounds nuw i8, ptr %0, i64 81752
  br label %4

3:                                                ; preds = %4
  ret void

4:                                                ; preds = %1, %4
  %.07 = phi i64 [ 0, %1 ], [ %8, %4 ]
  %5 = getelementptr [4096 x %struct.type_cache_entry], ptr %2, i64 0, i64 %.07
  store i32 0, ptr %5, align 8, !tbaa !121
  %6 = getelementptr inbounds nuw i8, ptr %5, i64 8
  store ptr @_Py_NoneStruct, ptr %6, align 8, !tbaa !123
  %7 = getelementptr inbounds nuw i8, ptr %5, i64 16
  store ptr null, ptr %7, align 8, !tbaa !124
  %8 = add nuw nsw i64 %.07, 1
  %exitcond.not = icmp eq i64 %8, 4096
  br i1 %exitcond.not, label %3, label %4, !llvm.loop !125
}